target datalayout = "e-m:e-p270:32:32-p271:32:32-p272:64:64-i64:64-i128:128-f80:128-n8:16:32:64-S128"
target triple = "x86_64-pc-linux-gnu"

%struct._SPI_plan = type { i32, i8, i8, ptr, ptr, i32, i32, i32, ptr, ptr, ptr }
%struct.ForEachState = type { ptr, i32 }
%struct.List = type { i32, i32, i32, ptr, [0 x %union.ListCell] }
%union.ListCell = type { ptr }

@CacheMemoryContext = external global ptr, align 8

; Function Attrs: nounwind uwtable
define dso_local i32 @SPI_keepplan(ptr noundef %0) #0 {
  %2 = alloca i32, align 4
  %3 = alloca ptr, align 8
  %4 = alloca ptr, align 8
  %5 = alloca i32, align 4
  %6 = alloca %struct.ForEachState, align 8
  %7 = alloca ptr, align 8
  store ptr %0, ptr %3, align 8
  call void @llvm.lifetime.start.p0(i64 8, ptr %4) #9
  %8 = load ptr, ptr %3, align 8
  %9 = icmp eq ptr %8, null
  br i1 %9, label %25, label %10

10:                                               ; preds = %1
  %11 = load ptr, ptr %3, align 8
  %12 = getelementptr inbounds nuw %struct._SPI_plan, ptr %11, i32 0, i32 0
  %13 = load i32, ptr %12, align 8
  %14 = icmp ne i32 %13, 569278163
  br i1 %14, label %25, label %15

15:                                               ; preds = %10
  %16 = load ptr, ptr %3, align 8
  %17 = getelementptr inbounds nuw %struct._SPI_plan, ptr %16, i32 0, i32 1
  %18 = load i8, ptr %17, align 4, !range !4, !noundef !5
  %19 = trunc i8 %18 to i1
  br i1 %19, label %25, label %20

20:                                               ; preds = %15
  %21 = load ptr, ptr %3, align 8
  %22 = getelementptr inbounds nuw %struct._SPI_plan, ptr %21, i32 0, i32 2
  %23 = load i8, ptr %22, align 1, !range !4, !noundef !5
  %24 = trunc i8 %23 to i1
  br i1 %24, label %25, label %26

25:                                               ; preds = %20, %15, %10, %1
  store i32 -6, ptr %2, align 4
  store i32 1, ptr %5, align 4
  br label %74

26:                                               ; preds = %20
  %27 = load ptr, ptr %3, align 8
  %28 = getelementptr inbounds nuw %struct._SPI_plan, ptr %27, i32 0, i32 1
  store i8 1, ptr %28, align 4
  %29 = load ptr, ptr %3, align 8
  %30 = getelementptr inbounds nuw %struct._SPI_plan, ptr %29, i32 0, i32 4
  %31 = load ptr, ptr %30, align 8
  %32 = load ptr, ptr @CacheMemoryContext, align 8
  call void @MemoryContextSetParent(ptr noundef %31, ptr noundef %32)
  call void @llvm.lifetime.start.p0(i64 16, ptr %6) #9
  %33 = getelementptr inbounds nuw %struct.ForEachState, ptr %6, i32 0, i32 0
  %34 = load ptr, ptr %3, align 8
  %35 = getelementptr inbounds nuw %struct._SPI_plan, ptr %34, i32 0, i32 3
  %36 = load ptr, ptr %35, align 8
  store ptr %36, ptr %33, align 8
  %37 = getelementptr inbounds nuw %struct.ForEachState, ptr %6, i32 0, i32 1
  store i32 0, ptr %37, align 8
  %38 = getelementptr i8, ptr %6, i64 12
  call void @llvm.memset.p0.i64(ptr align 4 %38, i8 0, i64 4, i1 false)
  br label %39

39:                                               ; preds = %69, %26
  %40 = getelementptr inbounds nuw %struct.ForEachState, ptr %6, i32 0, i32 0
  %41 = load ptr, ptr %40, align 8
  %42 = icmp ne ptr %41, null
  br i1 %42, label %43, label %60

43:                                               ; preds = %39
  %44 = getelementptr inbounds nuw %struct.ForEachState, ptr %6, i32 0, i32 1
  %45 = load i32, ptr %44, align 8
  %46 = getelementptr inbounds nuw %struct.ForEachState, ptr %6, i32 0, i32 0
  %47 = load ptr, ptr %46, align 8
  %48 = getelementptr inbounds nuw %struct.List, ptr %47, i32 0, i32 1
  %49 = load i32, ptr %48, align 4
  %50 = icmp slt i32 %45, %49
  br i1 %50, label %51, label %60

51:                                               ; preds = %43
  %52 = getelementptr inbounds nuw %struct.ForEachState, ptr %6, i32 0, i32 0
  %53 = load ptr, ptr %52, align 8
  %54 = getelementptr inbounds nuw %struct.List, ptr %53, i32 0, i32 3
  %55 = load ptr, ptr %54, align 8
  %56 = getelementptr inbounds nuw %struct.ForEachState, ptr %6, i32 0, i32 1
  %57 = load i32, ptr %56, align 8
  %58 = sext i32 %57 to i64
  %59 = getelementptr inbounds %union.ListCell, ptr %55, i64 %58
  store ptr %59, ptr %4, align 8
  br label %61

60:                                               ; preds = %43, %39
  store ptr null, ptr %4, align 8
  br label %61

61:                                               ; preds = %60, %51
  %62 = phi i32 [ 1, %51 ], [ 0, %60 ]
  %63 = icmp ne i32 %62, 0
  br i1 %63, label %65, label %64

64:                                               ; preds = %61
  store i32 2, ptr %5, align 4
  call void @llvm.lifetime.end.p0(i64 16, ptr %6) #9
  br label %73

65:                                               ; preds = %61
  call void @llvm.lifetime.start.p0(i64 8, ptr %7) #9
  %66 = load ptr, ptr %4, align 8
  %67 = load ptr, ptr %66, align 8
  store ptr %67, ptr %7, align 8
  %68 = load ptr, ptr %7, align 8
  call void @SaveCachedPlan(ptr noundef %68)
  call void @llvm.lifetime.end.p0(i64 8, ptr %7) #9
  br label %69

69:                                               ; preds = %65
  %70 = getelementptr inbounds nuw %struct.ForEachState, ptr %6, i32 0, i32 1
  %71 = load i32, ptr %70, align 8
  %72 = add i32 %71, 1
  store i32 %72, ptr %70, align 8
  br label %39, !llvm.loop !16

73:                                               ; preds = %64
  store i32 0, ptr %2, align 4
  store i32 1, ptr %5, align 4
  br label %74

74:                                               ; preds = %73, %25
  call void @llvm.lifetime.end.p0(i64 8, ptr %4) #9
  %75 = load i32, ptr %2, align 4
  ret i32 %75
}