; Function Attrs: nounwind uwtable
define dso_local range(i32 -6, 1) i32 @SPI_keepplan(ptr noundef captures(address_is_null) %0) local_unnamed_addr #0 {
  %2 = icmp eq ptr %0, null
  br i1 %2, label %.thread, label %3

3:                                                ; preds = %1
  %4 = load i32, ptr %0, align 8
  %.not = icmp eq i32 %4, 569278163
  br i1 %.not, label %5, label %.thread

5:                                                ; preds = %3
  %6 = getelementptr inbounds nuw i8, ptr %0, i64 4
  %7 = load i8, ptr %6, align 4, !range !4, !noundef !5
  %8 = trunc nuw i8 %7 to i1
  br i1 %8, label %.thread, label %9

9:                                                ; preds = %5
  %10 = getelementptr inbounds nuw i8, ptr %0, i64 5
  %11 = load i8, ptr %10, align 1, !range !4, !noundef !5
  %12 = trunc nuw i8 %11 to i1
  br i1 %12, label %.thread, label %13

13:                                               ; preds = %9
  store i8 1, ptr %6, align 4
  %14 = getelementptr inbounds nuw i8, ptr %0, i64 16
  %15 = load ptr, ptr %14, align 8
  %16 = load ptr, ptr @CacheMemoryContext, align 8
  tail call void @MemoryContextSetParent(ptr noundef %15, ptr noundef %16) #15
  %17 = getelementptr inbounds nuw i8, ptr %0, i64 8
  %18 = load ptr, ptr %17, align 8
  %19 = getelementptr inbounds nuw i8, ptr %18, i64 4
  %.not16 = icmp eq ptr %18, null
  br i1 %.not16, label %.thread, label %.lr.ph

.lr.ph:                                           ; preds = %13
  %20 = getelementptr inbounds nuw i8, ptr %18, i64 16
  %21 = load i32, ptr %19, align 4
  %22 = icmp sgt i32 %21, 0
  br i1 %22, label %.lr.ph23, label %.thread

.lr.ph23:                                         ; preds = %.lr.ph, %.lr.ph23
  %indvars.iv = phi i64 [ %indvars.iv.next, %.lr.ph23 ], [ 0, %.lr.ph ]
  %23 = load ptr, ptr %20, align 8
  %24 = getelementptr inbounds nuw %union.ListCell, ptr %23, i64 %indvars.iv
  %25 = load ptr, ptr %24, align 8
  tail call void @SaveCachedPlan(ptr noundef %25) #15
  %indvars.iv.next = add nuw nsw i64 %indvars.iv, 1
  %26 = load i32, ptr %19, align 4
  %27 = sext i32 %26 to i64
  %28 = icmp slt i64 %indvars.iv.next, %27
  br i1 %28, label %.lr.ph23, label %.thread

.thread:                                          ; preds = %.lr.ph23, %13, %.lr.ph, %1, %3, %5, %9
  %.0 = phi i32 [ -6, %9 ], [ -6, %5 ], [ -6, %3 ], [ -6, %1 ], [ 0, %.lr.ph ], [ 0, %13 ], [ 0, %.lr.ph23 ]
  ret i32 %.0
}